target datalayout = "e-m:e-p270:32:32-p271:32:32-p272:64:64-i64:64-i128:128-f80:128-n8:16:32:64-S128"
target triple = "x86_64-unknown-linux-gnu"

%"class.rocksdb::MemoryMappedFileBuffer" = type { ptr, ptr, i64 }

@_ZTVN7rocksdb27PosixMemoryMappedFileBufferE = unnamed_addr constant { [4 x ptr] } { [4 x ptr] [ptr null, ptr null, ptr @_ZN7rocksdb27PosixMemoryMappedFileBufferD1Ev, ptr @_ZN7rocksdb27PosixMemoryMappedFileBufferD0Ev] }, align 8

; Function Attrs: mustprogress nounwind uwtable
define void @_ZN7rocksdb27PosixMemoryMappedFileBufferD2Ev(ptr noundef nonnull align 8 dereferenceable(24) %this) unnamed_addr #3 align 2 {
entry:
  %this.addr = alloca ptr, align 8
  store ptr %this, ptr %this.addr, align 8
  %this1 = load ptr, ptr %this.addr, align 8
  store ptr getelementptr inbounds ({ [4 x ptr] }, ptr @_ZTVN7rocksdb27PosixMemoryMappedFileBufferE, i32 0, i32 0, i32 2), ptr %this1, align 8
  %base_ = getelementptr inbounds %"class.rocksdb::MemoryMappedFileBuffer", ptr %this1, i32 0, i32 1
  %0 = load ptr, ptr %base_, align 8
  %length_ = getelementptr inbounds %"class.rocksdb::MemoryMappedFileBuffer", ptr %this1, i32 0, i32 2
  %1 = load i64, ptr %length_, align 8
  %call = call i32 @munmap(ptr noundef %0, i64 noundef %1) #15
  call void @_ZN7rocksdb22MemoryMappedFileBufferD2Ev(ptr noundef nonnull align 8 dereferenceable(24) %this1) #15
  ret void
}