; Function Attrs: mustprogress nounwind uwtable
define void @_ZN7rocksdb27PosixMemoryMappedFileBufferD2Ev(ptr noundef nonnull align 8 dereferenceable(24) %this) unnamed_addr #3 align 2 {
entry:
  store ptr getelementptr inbounds ({ [4 x ptr] }, ptr @_ZTVN7rocksdb27PosixMemoryMappedFileBufferE, i64 0, i32 0, i64 2), ptr %this, align 8
  %base_ = getelementptr inbounds i8, ptr %this, i64 8
  %0 = load ptr, ptr %base_, align 8
  %length_ = getelementptr inbounds i8, ptr %this, i64 16
  %1 = load i64, ptr %length_, align 8
  %call = tail call i32 @munmap(ptr noundef %0, i64 noundef %1) #25
  tail call void @_ZN7rocksdb22MemoryMappedFileBufferD2Ev(ptr noundef nonnull align 8 dereferenceable(24) %this) #25
  ret void
}